; Function Attrs: mustprogress nofree norecurse nosync nounwind willreturn memory(none) uwtable
define noundef i64 @_ZN32pxrInternal_v0_24__pxrReserved__22Usd_IntegerCompression32GetDecompressionWorkingSpaceSizeEm(i64 noundef %0) local_unnamed_addr #2 align 2 {
  %.not.i = icmp eq i64 %0, 0
  br i1 %.not.i, label %_ZN32pxrInternal_v0_24__pxrReserved__12_GLOBAL__N_121_GetEncodedBufferSizeIiEEmm.exit, label %2

2:                                                ; preds = %1
  %3 = shl i64 %0, 1
  %4 = add i64 %3, 7
  %5 = lshr i64 %4, 3
  %6 = shl i64 %0, 2
  %7 = add i64 %6, 4
  %8 = add i64 %7, %5
  br label %_ZN32pxrInternal_v0_24__pxrReserved__12_GLOBAL__N_121_GetEncodedBufferSizeIiEEmm.exit

_ZN32pxrInternal_v0_24__pxrReserved__12_GLOBAL__N_121_GetEncodedBufferSizeIiEEmm.exit: ; preds = %1, %2
  %9 = phi i64 [ %8, %2 ], [ 0, %1 ]
  ret i64 %9
}